Certificate:
    Data:
        Version: 3 (0x2)
        Serial Number:
            38:52:7b:c1:a3:a0:44:90:ca:c6:76:39:92:11:7c:90:18:5f:cb:98
        Signature Algorithm: sha256WithRSAEncryption
        Issuer: C = DE, ST = NRW, L = Kerpen, CN = Local Test  Intermediate CA
        Validity
            Not Before: May 27 16:58:00 2024 GMT
            Not After : May 27 16:58:00 2025 GMT
        Subject: CN = DarkBase Local and FreeDDNS Server Certificate
        Subject Public Key Info:
            Public Key Algorithm: rsaEncryption
                RSA Public-Key: (2048 bit)
                Modulus:
                    00:c4:69:46:ed:41:24:de:fc:4e:c3:c4:9d:54:f1:
                    e1:ee:1e:bf:00:c8:2e:84:2d:a5:df:30:ea:1f:ac:
                    8c:c6:66:a8:65:a9:a4:bc:24:eb:cc:41:60:db:53:
                    7b:e5:a2:55:a0:8f:2f:69:9e:0f:ea:b9:08:05:d8:
                    0a:11:58:0f:41:8a:c2:7e:71:ce:9b:14:62:4d:72:
                    e9:0b:01:24:bb:97:37:d8:10:aa:6a:6d:4b:16:fe:
                    4e:86:53:f7:d9:e9:87:1c:80:6e:26:ec:a3:05:31:
                    1f:01:85:34:c8:2a:6c:fc:06:f8:88:02:16:3d:ce:
                    cb:d8:4f:88:f5:99:aa:37:88:93:c4:b0:d3:e8:1f:
                    62:c7:97:42:d3:49:ef:e9:ed:2f:a8:8f:d5:a9:21:
                    2a:1e:63:af:b1:bb:e9:ac:4c:f9:df:1d:e0:7a:28:
                    a2:16:09:1f:bc:f1:65:26:87:b4:c3:c3:55:1c:5e:
                    d3:c2:c0:cd:4c:9b:4f:46:e4:43:15:fb:f5:95:70:
                    73:69:54:f8:88:68:19:06:fe:be:8d:ab:72:fc:b9:
                    20:7e:92:5d:8f:18:a8:39:ce:a0:b1:05:49:b5:5d:
                    4c:64:b2:9b:ce:67:60:d0:5f:05:70:c8:6c:aa:69:
                    b7:59:9f:87:80:29:cb:7b:a5:df:26:1c:e5:09:c7:
                    aa:79
                Exponent: 65537 (0x10001)
        X509v3 extensions:
            X509v3 Key Usage: critical
                Digital Signature, Key Encipherment
            X509v3 Extended Key Usage: 
                TLS Web Server Authentication
            X509v3 Basic Constraints: critical
                CA:FALSE
            X509v3 Subject Key Identifier: 
                D8:09:72:3A:3A:E8:83:A4:A4:2F:AE:BE:DB:AD:ED:D3:93:E2:C7:59
            X509v3 Authority Key Identifier: 
                keyid:56:79:EB:3A:29:74:93:BC:16:ED:4D:43:F0:41:C9:7A:17:DE:7F:01

            X509v3 Subject Alternative Name: 
                DNS:darkbase.fritz.box, DNS:darkbase.eisenlohr.freeddns.org, DNS:localhost
    Signature Algorithm: sha256WithRSAEncryption
         23:60:95:06:a2:d3:79:bc:14:51:ed:43:55:d6:49:ad:83:35:
         7c:05:6b:a2:63:c2:09:cd:b7:8a:c5:33:48:1d:5c:47:ea:32:
         43:32:01:4d:0b:ff:84:5d:4e:24:44:89:6f:51:0c:80:85:bf:
         b7:36:72:3b:b8:76:75:80:87:42:46:89:2a:d5:a7:a1:fc:8d:
         6f:17:7a:74:66:e8:8c:78:d2:71:16:7d:80:5b:c1:21:00:45:
         22:fa:9c:6b:d5:03:c3:05:14:c6:f3:9d:b2:08:09:3f:1d:6a:
         b5:97:20:9c:c3:2a:fa:d0:bd:c0:48:b2:5d:3f:3a:39:09:48:
         44:58:67:85:ee:64:90:73:f5:65:be:02:fd:24:60:11:d9:93:
         71:08:45:77:11:6d:d2:8b:6f:75:40:5b:57:b2:c2:86:a0:e8:
         96:2c:64:81:70:bd:0d:be:db:0b:64:4e:58:3c:01:de:af:22:
         1f:a4:7f:02:4c:8c:28:0f:04:ad:7c:29:74:e5:e8:1c:a3:c6:
         14:a7:71:07:95:6e:12:d0:b8:55:4e:97:c7:9e:73:49:6e:75:
         08:1f:d6:b6:45:6b:25:57:06:e0:f6:fd:d5:47:6d:65:c9:26:
         b1:82:40:22:e0:c1:e3:ef:f9:36:e3:ef:da:7f:f3:78:4f:37:
         00:29:9f:27
-----BEGIN CERTIFICATE-----
MIID2zCCAsOgAwIBAgIUOFJ7waOgRJDKxnY5khF8kBhfy5gwDQYJKoZIhvcNAQEL
BQAwUjELMAkGA1UEBhMCREUxDDAKBgNVBAgTA05SVzEPMA0GA1UEBxMGS2VycGVu
MSQwIgYDVQQDExtMb2NhbCBUZXN0ICBJbnRlcm1lZGlhdGUgQ0EwHhcNMjQwNTI3
MTY1ODAwWhcNMjUwNTI3MTY1ODAwWjA5MTcwNQYDVQQDEy5EYXJrQmFzZSBMb2Nh
bCBhbmQgRnJlZURETlMgU2VydmVyIENlcnRpZmljYXRlMIIBIjANBgkqhkiG9w0B
AQEFAAOCAQ8AMIIBCgKCAQEAxGlG7UEk3vxOw8SdVPHh7h6/AMguhC2l3zDqH6yM
xmaoZamkvCTrzEFg21N75aJVoI8vaZ4P6rkIBdgKEVgPQYrCfnHOmxRiTXLpCwEk
u5c32BCqam1LFv5OhlP32emHHIBuJuyjBTEfAYU0yCps/Ab4iAIWPc7L2E+I9Zmq
N4iTxLDT6B9ix5dC00nv6e0vqI/VqSEqHmOvsbvprEz53x3geiiiFgkfvPFlJoe0
w8NVHF7TwsDNTJtPRuRDFfv1lXBzaVT4iGgZBv6+jaty/LkgfpJdjxioOc6gsQVJ
tV1MZLKbzmdg0F8FcMhsqmm3WZ+HgCnLe6XfJhzlCceqeQIDAQABo4HBMIG+MA4G
A1UdDwEB/wQEAwIFoDATBgNVHSUEDDAKBggrBgEFBQcDATAMBgNVHRMBAf8EAjAA
MB0GA1UdDgQWBBTYCXI6OuiDpKQvrr7bre3Tk+LHWTAfBgNVHSMEGDAWgBRWees6
KXSTvBbtTUPwQcl6F95/ATBJBgNVHREEQjBAghJkYXJrYmFzZS5mcml0ei5ib3iC
H2RhcmtiYXNlLmVpc2VubG9oci5mcmVlZGRucy5vcmeCCWxvY2FsaG9zdDANBgkq
hkiG9w0BAQsFAAOCAQEAI2CVBqLTebwUUe1DVdZJrYM1fAVromPCCc23isUzSB1c
R+oyQzIBTQv/hF1OJESJb1EMgIW/tzZyO7h2dYCHQkaJKtWnofyNbxd6dGbojHjS
cRZ9gFvBIQBFIvqca9UDwwUUxvOdsggJPx1qtZcgnMMq+tC9wEiyXT86OQlIRFhn
he5kkHP1Zb4C/SRgEdmTcQhFdxFt0otvdUBbV7LChqDolixkgXC9Db7bC2ROWDwB
3q8iH6R/AkyMKA8ErXwpdOXoHKPGFKdxB5VuEtC4VU6Xx55zSW51CB/WtkVrJVcG
4Pb91UdtZckmsYJAIuDB4+/5NuPv2n/zeE83ACmfJw==
-----END CERTIFICATE-----
Certificate:
    Data:
        Version: 3 (0x2)
        Serial Number:
            64:ce:75:a7:e1:63:24:2f:4d:99:93:79:fc:75:4e:66:4b:c6:f3:21
        Signature Algorithm: ecdsa-with-SHA256
        Issuer: C = DE, ST = NRW, L = Kerpen, CN = Eisenlohr Test Root CA
        Validity
            Not Before: May 23 21:24:00 2023 GMT
            Not After : May 20 21:24:00 2033 GMT
        Subject: C = DE, ST = NRW, L = Kerpen, CN = Local Test  Intermediate CA
        Subject Public Key Info:
            Public Key Algorithm: rsaEncryption
                RSA Public-Key: (2048 bit)
                Modulus:
                    00:c9:6a:5a:e8:6f:b3:a0:4d:d1:1a:56:0f:8f:4c:
                    1d:18:43:07:ac:34:87:ca:fc:d6:eb:c9:63:b9:b2:
                    5d:9f:9d:b3:4d:fb:20:ba:8a:c4:91:3f:46:8c:9b:
                    13:e6:b2:bc:35:f4:7c:81:43:dc:a3:fa:92:bb:76:
                    88:be:4c:91:11:3f:f9:97:32:6b:38:31:70:a0:6d:
                    49:d2:0e:f4:b8:e2:d0:e4:03:b5:ca:1e:48:92:a0:
                    b0:f4:29:7a:ca:08:7e:4b:6d:86:9a:2e:d5:5e:8f:
                    17:71:c0:7f:4c:84:45:7e:62:91:be:b7:0b:af:2e:
                    92:ae:69:bc:42:a7:8e:f8:1c:9e:7e:fb:88:d9:e6:
                    f3:56:2d:77:d3:7e:cc:bc:ba:06:51:21:d7:06:91:
                    b9:ec:3a:a4:03:31:8e:30:24:9c:2c:d1:03:16:93:
                    a4:04:30:7d:e3:e4:92:7d:9a:bb:1e:0b:05:c1:a5:
                    c3:0d:09:5d:93:13:2d:25:f6:19:81:7d:85:ea:a4:
                    c6:ba:85:08:cd:48:ec:5c:59:2e:e0:d8:98:7c:f9:
                    08:f2:d2:a6:80:84:00:c6:6c:c4:ac:da:56:db:19:
                    44:3a:ce:a9:fa:44:d8:02:41:66:f0:b5:76:9a:4e:
                    97:a2:76:ed:0b:df:b7:d1:40:63:19:e1:fa:da:18:
                    8a:8b
                Exponent: 65537 (0x10001)
        X509v3 extensions:
            X509v3 Key Usage: critical
                Digital Signature, Key Encipherment, Certificate Sign, CRL Sign
            X509v3 Basic Constraints: critical
                CA:TRUE, pathlen:0
            X509v3 Subject Key Identifier: 
                56:79:EB:3A:29:74:93:BC:16:ED:4D:43:F0:41:C9:7A:17:DE:7F:01
            X509v3 Authority Key Identifier: 
                keyid:FD:70:D9:3D:A9:D8:AC:C8:76:26:25:E1:C1:E2:E3:BE:9C:75:B4:6D

    Signature Algorithm: ecdsa-with-SHA256
         30:45:02:21:00:df:39:63:77:40:95:d5:72:e8:95:dc:c0:88:
         1b:28:08:5b:46:9f:07:dd:8b:48:f2:d6:c2:0e:23:78:4d:3a:
         f6:02:20:20:95:e2:0e:f9:1d:18:ef:41:15:c7:c3:f2:36:86:
         05:0f:9b:bf:ba:7c:ee:d7:66:59:ea:43:85:1f:59:35:19
-----BEGIN CERTIFICATE-----
MIIC0jCCAnigAwIBAgIUZM51p+FjJC9NmZN5/HVOZkvG8yEwCgYIKoZIzj0EAwIw
TTELMAkGA1UEBhMCREUxDDAKBgNVBAgTA05SVzEPMA0GA1UEBxMGS2VycGVuMR8w
HQYDVQQDExZFaXNlbmxvaHIgVGVzdCBSb290IENBMB4XDTIzMDUyMzIxMjQwMFoX
DTMzMDUyMDIxMjQwMFowUjELMAkGA1UEBhMCREUxDDAKBgNVBAgTA05SVzEPMA0G
A1UEBxMGS2VycGVuMSQwIgYDVQQDExtMb2NhbCBUZXN0ICBJbnRlcm1lZGlhdGUg
Q0EwggEiMA0GCSqGSIb3DQEBAQUAA4IBDwAwggEKAoIBAQDJalrob7OgTdEaVg+P
TB0YQwesNIfK/NbryWO5sl2fnbNN+yC6isSRP0aMmxPmsrw19HyBQ9yj+pK7doi+
TJERP/mXMms4MXCgbUnSDvS44tDkA7XKHkiSoLD0KXrKCH5LbYaaLtVejxdxwH9M
hEV+YpG+twuvLpKuabxCp474HJ5++4jZ5vNWLXfTfsy8ugZRIdcGkbnsOqQDMY4w
JJws0QMWk6QEMH3j5JJ9mrseCwXBpcMNCV2TEy0l9hmBfYXqpMa6hQjNSOxcWS7g
2Jh8+Qjy0qaAhADGbMSs2lbbGUQ6zqn6RNgCQWbwtXaaTpeidu0L37fRQGMZ4fra
GIqLAgMBAAGjZjBkMA4GA1UdDwEB/wQEAwIBpjASBgNVHRMBAf8ECDAGAQH/AgEA
MB0GA1UdDgQWBBRWees6KXSTvBbtTUPwQcl6F95/ATAfBgNVHSMEGDAWgBT9cNk9
qdisyHYmJeHB4uO+nHW0bTAKBggqhkjOPQQDAgNIADBFAiEA3zljd0CV1XLoldzA
iBsoCFtGnwfdi0jy1sIOI3hNOvYCICCV4g75HRjvQRXHw/I2hgUPm7+6fO7XZlnq
Q4UfWTUZ
-----END CERTIFICATE-----
Certificate:
    Data:
        Version: 3 (0x2)
        Serial Number:
            a8:5e:34:ce:d0:9c:42:de:fe:53:bc:7b:8f:a3:fd:8d:6a:08:0f
        Signature Algorithm: ecdsa-with-SHA256
        Issuer: C = DE, ST = NRW, L = Kerpen, CN = Eisenlohr Test Root CA
        Validity
            Not Before: Apr  9 08:42:00 2021 GMT
            Not After : Apr  8 08:42:00 2026 GMT
        Subject: C = DE, ST = NRW, L = Kerpen, CN = Eisenlohr Test Root CA
        Subject Public Key Info:
            Public Key Algorithm: id-ecPublicKey
                Public-Key: (256 bit)
                pub:
                    04:ff:c3:1d:9f:ee:c2:2b:6d:c0:a0:5f:c6:95:b9:
                    78:34:c3:ca:38:53:80:05:56:14:31:92:c3:86:54:
                    22:6a:6f:2c:90:19:fb:75:1c:31:5e:83:33:81:51:
                    55:c4:8c:f1:bb:50:43:bb:e6:7c:c7:a7:9e:c0:a3:
                    13:72:d8:d9:2a
                ASN1 OID: prime256v1
                NIST CURVE: P-256
        X509v3 extensions:
            X509v3 Key Usage: critical
                Certificate Sign, CRL Sign
            X509v3 Basic Constraints: critical
                CA:TRUE
            X509v3 Subject Key Identifier: 
                FD:70:D9:3D:A9:D8:AC:C8:76:26:25:E1:C1:E2:E3:BE:9C:75:B4:6D
    Signature Algorithm: ecdsa-with-SHA256
         30:45:02:21:00:f1:a8:cf:bc:c9:1b:ff:cb:66:49:d5:e8:5e:
         73:00:ae:9c:94:58:ff:60:a5:88:06:8c:73:bc:3c:66:08:6f:
         26:02:20:32:a8:cb:0a:df:5c:15:96:34:d5:15:e6:9d:45:df:
         e1:a6:49:70:b4:5d:38:82:e5:66:77:1f:2c:f1:23:0c:58
-----BEGIN CERTIFICATE-----
MIIB3jCCAYSgAwIBAgIUAKheNM7QnELe/lO8e4+j/Y1qCA8wCgYIKoZIzj0EAwIw
TTELMAkGA1UEBhMCREUxDDAKBgNVBAgTA05SVzEPMA0GA1UEBxMGS2VycGVuMR8w
HQYDVQQDExZFaXNlbmxvaHIgVGVzdCBSb290IENBMB4XDTIxMDQwOTA4NDIwMFoX
DTI2MDQwODA4NDIwMFowTTELMAkGA1UEBhMCREUxDDAKBgNVBAgTA05SVzEPMA0G
A1UEBxMGS2VycGVuMR8wHQYDVQQDExZFaXNlbmxvaHIgVGVzdCBSb290IENBMFkw
EwYHKoZIzj0CAQYIKoZIzj0DAQcDQgAE/8Mdn+7CK23AoF/Glbl4NMPKOFOABVYU
MZLDhlQiam8skBn7dRwxXoMzgVFVxIzxu1BDu+Z8x6eewKMTctjZKqNCMEAwDgYD
VR0PAQH/BAQDAgEGMA8GA1UdEwEB/wQFMAMBAf8wHQYDVR0OBBYEFP1w2T2p2KzI
diYl4cHi476cdbRtMAoGCCqGSM49BAMCA0gAMEUCIQDxqM+8yRv/y2ZJ1ehecwCu
nJRY/2CliAaMc7w8ZghvJgIgMqjLCt9cFZY01RXmnUXf4aZJcLRdOILlZncfLPEj
DFg=
-----END CERTIFICATE-----
